; ModuleID = '30/1862.c'
source_filename = "30/1862.c"
target datalayout = "e-m:e-p270:32:32-p271:32:32-p272:64:64-i64:64-f80:128-n8:16:32:64-S128"
target triple = "x86_64-pc-linux-gnu"

@.str = private unnamed_addr constant [3 x i8] c"%d\00", align 1

; Function Attrs: noinline nounwind uwtable
define dso_local i32 @main() #0 {
  %1 = alloca i32, align 4
  %2 = alloca i32, align 4
  %3 = alloca i32, align 4
  %4 = alloca i32, align 4
  %5 = alloca i32, align 4
  store i32 0, i32* %1, align 4
  store i32 0, i32* %5, align 4
  %6 = call i32 (i8*, ...) @__isoc99_scanf(i8* getelementptr inbounds ([3 x i8], [3 x i8]* @.str, i64 0, i64 0), i32* %2)
  store i32 0, i32* %3, align 4
  br label %7

7:                                                ; preds = %82, %0
  %8 = load i32, i32* %3, align 4
  %9 = load i32, i32* %2, align 4
  %10 = icmp sle i32 %8, %9
  br i1 %10, label %11, label %85

11:                                               ; preds = %7
  %12 = load i32, i32* %3, align 4
  %13 = srem i32 %12, 7
  store i32 %13, i32* %4, align 4
  %14 = load i32, i32* %4, align 4
  %15 = icmp eq i32 %14, 0
  br i1 %15, label %73, label %16

16:                                               ; preds = %11
  %17 = load i32, i32* %3, align 4
  %18 = icmp eq i32 %17, 17
  br i1 %18, label %73, label %19

19:                                               ; preds = %16
  %20 = load i32, i32* %3, align 4
  %21 = icmp eq i32 %20, 27
  br i1 %21, label %73, label %22

22:                                               ; preds = %19
  %23 = load i32, i32* %3, align 4
  %24 = icmp eq i32 %23, 37
  br i1 %24, label %73, label %25

25:                                               ; preds = %22
  %26 = load i32, i32* %3, align 4
  %27 = icmp eq i32 %26, 47
  br i1 %27, label %73, label %28

28:                                               ; preds = %25
  %29 = load i32, i32* %3, align 4
  %30 = icmp eq i32 %29, 57
  br i1 %30, label %73, label %31

31:                                               ; preds = %28
  %32 = load i32, i32* %3, align 4
  %33 = icmp eq i32 %32, 67
  br i1 %33, label %73, label %34

34:                                               ; preds = %31
  %35 = load i32, i32* %3, align 4
  %36 = icmp eq i32 %35, 77
  br i1 %36, label %73, label %37

37:                                               ; preds = %34
  %38 = load i32, i32* %3, align 4
  %39 = icmp eq i32 %38, 87
  br i1 %39, label %73, label %40

40:                                               ; preds = %37
  %41 = load i32, i32* %3, align 4
  %42 = icmp eq i32 %41, 97
  br i1 %42, label %73, label %43

43:                                               ; preds = %40
  %44 = load i32, i32* %3, align 4
  %45 = icmp eq i32 %44, 70
  br i1 %45, label %73, label %46

46:                                               ; preds = %43
  %47 = load i32, i32* %3, align 4
  %48 = icmp eq i32 %47, 71
  br i1 %48, label %73, label %49

49:                                               ; preds = %46
  %50 = load i32, i32* %3, align 4
  %51 = icmp eq i32 %50, 72
  br i1 %51, label %73, label %52

52:                                               ; preds = %49
  %53 = load i32, i32* %3, align 4
  %54 = icmp eq i32 %53, 73
  br i1 %54, label %73, label %55

55:                                               ; preds = %52
  %56 = load i32, i32* %3, align 4
  %57 = icmp eq i32 %56, 74
  br i1 %57, label %73, label %58

58:                                               ; preds = %55
  %59 = load i32, i32* %3, align 4
  %60 = icmp eq i32 %59, 75
  br i1 %60, label %73, label %61

61:                                               ; preds = %58
  %62 = load i32, i32* %3, align 4
  %63 = icmp eq i32 %62, 76
  br i1 %63, label %73, label %64

64:                                               ; preds = %61
  %65 = load i32, i32* %3, align 4
  %66 = icmp eq i32 %65, 77
  br i1 %66, label %73, label %67

67:                                               ; preds = %64
  %68 = load i32, i32* %3, align 4
  %69 = icmp eq i32 %68, 78
  br i1 %69, label %73, label %70

70:                                               ; preds = %67
  %71 = load i32, i32* %3, align 4
  %72 = icmp eq i32 %71, 79
  br i1 %72, label %73, label %75

73:                                               ; preds = %70, %67, %64, %61, %58, %55, %52, %49, %46, %43, %40, %37, %34, %31, %28, %25, %22, %19, %16, %11
  %74 = load i32, i32* %5, align 4
  store i32 %74, i32* %5, align 4
  br label %81

75:                                               ; preds = %70
  %76 = load i32, i32* %5, align 4
  %77 = load i32, i32* %3, align 4
  %78 = load i32, i32* %3, align 4
  %79 = mul nsw i32 %77, %78
  %80 = add nsw i32 %76, %79
  store i32 %80, i32* %5, align 4
  br label %81

81:                                               ; preds = %75, %73
  br label %82

82:                                               ; preds = %81
  %83 = load i32, i32* %3, align 4
  %84 = add nsw i32 %83, 1
  store i32 %84, i32* %3, align 4
  br label %7

85:                                               ; preds = %7
  %86 = load i32, i32* %5, align 4
  %87 = call i32 (i8*, ...) @printf(i8* getelementptr inbounds ([3 x i8], [3 x i8]* @.str, i64 0, i64 0), i32 %86)
  ret i32 0
}

declare dso_local i32 @__isoc99_scanf(i8*, ...) #1

declare dso_local i32 @printf(i8*, ...) #1


!llvm.module.flags = !{!0}
!llvm.ident = !{!1}

!0 = !{i32 1, !"wchar_size", i32 4}
!1 = !{!"clang version 10.0.0-4ubuntu1 "}
